target datalayout = "e-m:e-p270:32:32-p271:32:32-p272:64:64-i64:64-i128:128-f80:128-n8:16:32:64-S128"
target triple = "x86_64-pc-linux-gnu"

%"class.llvm::TargetRegisterClass" = type { ptr, ptr, ptr, %"struct.llvm::LaneBitmask", i8, i8, i8, i8, i8, ptr, ptr }
%"struct.llvm::LaneBitmask" = type { i64 }
%"class.llvm::Register" = type { i32 }
%"class.llvm::MVT" = type { i16 }

@_ZN4llvm7AArch6413GPR64RegClassE = external global %"class.llvm::TargetRegisterClass", align 8
@_ZN4llvm7AArch6413GPR32RegClassE = external global %"class.llvm::TargetRegisterClass", align 8

; Function Attrs: mustprogress nounwind uwtable
define linkonce_odr hidden void @_ZN4llvm8RegisterC2Ej(ptr noundef nonnull align 4 dereferenceable(4) %0, i32 noundef %1) unnamed_addr #0 comdat align 2 {
  %3 = alloca ptr, align 8
  %4 = alloca i32, align 4
  store ptr %0, ptr %3, align 8
  store i32 %1, ptr %4, align 4
  %5 = load ptr, ptr %3, align 8
  %6 = getelementptr inbounds nuw %"class.llvm::Register", ptr %5, i32 0, i32 0
  %7 = load i32, ptr %4, align 4
  store i32 %7, ptr %6, align 4
  ret void
}

; Function Attrs: mustprogress nounwind uwtable
define linkonce_odr hidden noundef i32 @_ZNK4llvm8RegistercvjEv(ptr noundef nonnull align 4 dereferenceable(4) %0) #0 comdat align 2 {
  %2 = alloca ptr, align 8
  store ptr %0, ptr %2, align 8
  %3 = load ptr, ptr %2, align 8
  %4 = getelementptr inbounds nuw %"class.llvm::Register", ptr %3, i32 0, i32 0
  %5 = load i32, ptr %4, align 4
  ret i32 %5
}

; Function Attrs: mustprogress nounwind uwtable
define internal noundef i32 @_ZN12_GLOBAL__N_115AArch64FastISel10emitAnd_riEN4llvm3MVTEjm(ptr noundef nonnull align 8 dereferenceable(192) %0, i16 %1, i32 noundef %2, i64 noundef %3) #0 align 2 {
  %5 = alloca %"class.llvm::MVT", align 2
  %6 = alloca ptr, align 8
  %7 = alloca i32, align 4
  %8 = alloca i64, align 8
  %9 = alloca %"class.llvm::MVT", align 2
  %10 = getelementptr inbounds nuw %"class.llvm::MVT", ptr %5, i32 0, i32 0
  store i16 %1, ptr %10, align 2
  store ptr %0, ptr %6, align 8
  store i32 %2, ptr %7, align 4
  store i64 %3, ptr %8, align 8
  %11 = load ptr, ptr %6, align 8
  call void @llvm.memcpy.p0.p0.i64(ptr align 2 %9, ptr align 2 %5, i64 2, i1 false)
  %12 = load i32, ptr %7, align 4
  %13 = load i64, ptr %8, align 8
  %14 = getelementptr inbounds nuw %"class.llvm::MVT", ptr %9, i32 0, i32 0
  %15 = load i16, ptr %14, align 2
  %16 = call noundef i32 @_ZN12_GLOBAL__N_115AArch64FastISel16emitLogicalOp_riEjN4llvm3MVTEjm(ptr noundef nonnull align 8 dereferenceable(192) %11, i32 noundef 185, i16 %15, i32 noundef %12, i64 noundef %13)
  ret i32 %16
}

; Function Attrs: mustprogress nounwind uwtable
define linkonce_odr hidden noundef zeroext i1 @_ZNK4llvm3MVTeqERKS0_(ptr noundef nonnull align 2 dereferenceable(2) %0, ptr noundef nonnull align 2 dereferenceable(2) %1) #0 comdat align 2 {
  %3 = alloca ptr, align 8
  %4 = alloca ptr, align 8
  store ptr %0, ptr %3, align 8
  store ptr %1, ptr %4, align 8
  %5 = load ptr, ptr %3, align 8
  %6 = getelementptr inbounds nuw %"class.llvm::MVT", ptr %5, i32 0, i32 0
  %7 = load i16, ptr %6, align 2
  %8 = zext i16 %7 to i32
  %9 = load ptr, ptr %4, align 8
  %10 = getelementptr inbounds nuw %"class.llvm::MVT", ptr %9, i32 0, i32 0
  %11 = load i16, ptr %10, align 2
  %12 = zext i16 %11 to i32
  %13 = icmp eq i32 %8, %12
  ret i1 %13
}

; Function Attrs: mustprogress nounwind uwtable
define linkonce_odr hidden void @_ZN4llvm3MVTC2ENS0_15SimpleValueTypeE(ptr noundef nonnull align 2 dereferenceable(2) %0, i16 noundef zeroext %1) unnamed_addr #0 comdat align 2 {
  %3 = alloca ptr, align 8
  %4 = alloca i16, align 2
  store ptr %0, ptr %3, align 8
  store i16 %1, ptr %4, align 2
  %5 = load ptr, ptr %3, align 8
  %6 = getelementptr inbounds nuw %"class.llvm::MVT", ptr %5, i32 0, i32 0
  %7 = load i16, ptr %4, align 2
  store i16 %7, ptr %6, align 2
  ret void
}

; Function Attrs: mustprogress nounwind uwtable
define internal noundef i32 @_ZN12_GLOBAL__N_115AArch64FastISel10emitASR_rrEN4llvm3MVTEjj(ptr noundef nonnull align 8 dereferenceable(192) %0, i16 %1, i32 noundef %2, i32 noundef %3) #0 align 2 {
  %5 = alloca i32, align 4
  %6 = alloca %"class.llvm::MVT", align 2
  %7 = alloca ptr, align 8
  %8 = alloca i32, align 4
  %9 = alloca i32, align 4
  %10 = alloca i32, align 4
  %11 = alloca i8, align 1
  %12 = alloca i64, align 8
  %13 = alloca ptr, align 8
  %14 = alloca %"class.llvm::MVT", align 2
  %15 = alloca %"class.llvm::MVT", align 2
  %16 = alloca %"class.llvm::MVT", align 2
  %17 = alloca %"class.llvm::MVT", align 2
  %18 = alloca %"class.llvm::Register", align 4
  %19 = alloca %"class.llvm::Register", align 4
  %20 = alloca %"class.llvm::MVT", align 2
  %21 = getelementptr inbounds nuw %"class.llvm::MVT", ptr %6, i32 0, i32 0
  store i16 %1, ptr %21, align 2
  store ptr %0, ptr %7, align 8
  store i32 %2, ptr %8, align 4
  store i32 %3, ptr %9, align 4
  %22 = load ptr, ptr %7, align 8
  store i32 0, ptr %10, align 4
  store i8 0, ptr %11, align 1
  store i64 0, ptr %12, align 8
  %23 = getelementptr inbounds nuw %"class.llvm::MVT", ptr %6, i32 0, i32 0
  %24 = load i16, ptr %23, align 2
  %25 = zext i16 %24 to i32
  switch i32 %25, label %26 [
    i32 5, label %27
    i32 6, label %28
    i32 7, label %29
    i32 8, label %30
  ]

26:                                               ; preds = %4
  store i32 0, ptr %5, align 4
  br label %65

27:                                               ; preds = %4
  store i32 1571, ptr %10, align 4
  store i8 1, ptr %11, align 1
  store i64 255, ptr %12, align 8
  br label %31

28:                                               ; preds = %4
  store i32 1571, ptr %10, align 4
  store i8 1, ptr %11, align 1
  store i64 65535, ptr %12, align 8
  br label %31

29:                                               ; preds = %4
  store i32 1571, ptr %10, align 4
  br label %31

30:                                               ; preds = %4
  store i32 1572, ptr %10, align 4
  br label %31

31:                                               ; preds = %30, %29, %28, %27
  call void @_ZN4llvm3MVTC2ENS0_15SimpleValueTypeE(ptr noundef nonnull align 2 dereferenceable(2) %14, i16 noundef zeroext 8)
  %32 = call noundef zeroext i1 @_ZNK4llvm3MVTeqERKS0_(ptr noundef nonnull align 2 dereferenceable(2) %6, ptr noundef nonnull align 2 dereferenceable(2) %14)
  %33 = select i1 %32, ptr @_ZN4llvm7AArch6413GPR64RegClassE, ptr @_ZN4llvm7AArch6413GPR32RegClassE
  store ptr %33, ptr %13, align 8
  %34 = load i8, ptr %11, align 1
  %35 = trunc i8 %34 to i1
  br i1 %35, label %36, label %48

36:                                               ; preds = %31
  call void @llvm.memcpy.p0.p0.i64(ptr align 2 %15, ptr align 2 %6, i64 2, i1 false)
  %37 = load i32, ptr %8, align 4
  call void @_ZN4llvm3MVTC2ENS0_15SimpleValueTypeE(ptr noundef nonnull align 2 dereferenceable(2) %16, i16 noundef zeroext 7)
  %38 = getelementptr inbounds nuw %"class.llvm::MVT", ptr %15, i32 0, i32 0
  %39 = load i16, ptr %38, align 2
  %40 = getelementptr inbounds nuw %"class.llvm::MVT", ptr %16, i32 0, i32 0
  %41 = load i16, ptr %40, align 2
  %42 = call noundef i32 @_ZN12_GLOBAL__N_115AArch64FastISel10emitIntExtEN4llvm3MVTEjS2_b(ptr noundef nonnull align 8 dereferenceable(192) %22, i16 %39, i32 noundef %37, i16 %41, i1 noundef zeroext false)
  store i32 %42, ptr %8, align 4
  call void @_ZN4llvm3MVTC2ENS0_15SimpleValueTypeE(ptr noundef nonnull align 2 dereferenceable(2) %17, i16 noundef zeroext 7)
  %43 = load i32, ptr %9, align 4
  %44 = load i64, ptr %12, align 8
  %45 = getelementptr inbounds nuw %"class.llvm::MVT", ptr %17, i32 0, i32 0
  %46 = load i16, ptr %45, align 2
  %47 = call noundef i32 @_ZN12_GLOBAL__N_115AArch64FastISel10emitAnd_riEN4llvm3MVTEjm(ptr noundef nonnull align 8 dereferenceable(192) %22, i16 %46, i32 noundef %43, i64 noundef %44)
  store i32 %47, ptr %9, align 4
  br label %48

48:                                               ; preds = %36, %31
  %49 = load i32, ptr %10, align 4
  %50 = load ptr, ptr %13, align 8
  %51 = load i32, ptr %8, align 4
  %52 = load i32, ptr %9, align 4
  %53 = call i32 @_ZN4llvm8FastISel15fastEmitInst_rrEjPKNS_19TargetRegisterClassEjj(ptr noundef nonnull align 8 dereferenceable(176) %22, i32 noundef %49, ptr noundef %50, i32 noundef %51, i32 noundef %52)
  %54 = getelementptr inbounds nuw %"class.llvm::Register", ptr %18, i32 0, i32 0
  store i32 %53, ptr %54, align 4
  %55 = load i8, ptr %11, align 1
  %56 = trunc i8 %55 to i1
  br i1 %56, label %57, label %63

57:                                               ; preds = %48
  call void @_ZN4llvm3MVTC2ENS0_15SimpleValueTypeE(ptr noundef nonnull align 2 dereferenceable(2) %20, i16 noundef zeroext 7)
  %58 = call noundef i32 @_ZNK4llvm8RegistercvjEv(ptr noundef nonnull align 4 dereferenceable(4) %18)
  %59 = load i64, ptr %12, align 8
  %60 = getelementptr inbounds nuw %"class.llvm::MVT", ptr %20, i32 0, i32 0
  %61 = load i16, ptr %60, align 2
  %62 = call noundef i32 @_ZN12_GLOBAL__N_115AArch64FastISel10emitAnd_riEN4llvm3MVTEjm(ptr noundef nonnull align 8 dereferenceable(192) %22, i16 %61, i32 noundef %58, i64 noundef %59)
  call void @_ZN4llvm8RegisterC2Ej(ptr noundef nonnull align 4 dereferenceable(4) %19, i32 noundef %62)
  call void @llvm.memcpy.p0.p0.i64(ptr align 4 %18, ptr align 4 %19, i64 4, i1 false)
  br label %63

63:                                               ; preds = %57, %48
  %64 = call noundef i32 @_ZNK4llvm8RegistercvjEv(ptr noundef nonnull align 4 dereferenceable(4) %18)
  store i32 %64, ptr %5, align 4
  br label %65

65:                                               ; preds = %63, %26
  %66 = load i32, ptr %5, align 4
  ret i32 %66
}