; Function Attrs: mustprogress nounwind uwtable
define internal fastcc noundef i32 @_ZN12_GLOBAL__N_115AArch64FastISel10emitASR_rrEN4llvm3MVTEjj(ptr noundef nonnull align 8 dereferenceable(192) %0, i16 %1, i32 noundef %2, i32 noundef %3) unnamed_addr #0 align 2 {
  switch i16 %1, label %15 [
    i16 5, label %7
    i16 6, label %5
    i16 7, label %.critedge
    i16 8, label %6
  ]

5:                                                ; preds = %4
  br label %7

6:                                                ; preds = %4
  br label %.critedge

7:                                                ; preds = %5, %4
  %.012.ph = phi i64 [ 255, %4 ], [ 65535, %5 ]
  %8 = tail call fastcc noundef i32 @_ZN12_GLOBAL__N_115AArch64FastISel10emitIntExtEN4llvm3MVTEjS2_b(ptr noundef nonnull align 8 dereferenceable(192) %0, i16 %1, i32 noundef %2, i16 7, i1 noundef zeroext false)
  %9 = tail call fastcc noundef i32 @_ZN12_GLOBAL__N_115AArch64FastISel16emitLogicalOp_riEjN4llvm3MVTEjm(ptr noundef nonnull align 8 dereferenceable(192) %0, i32 noundef 185, i16 7, i32 noundef %3, i64 noundef range(i64 0, 4294967296) %.012.ph)
  %10 = tail call i32 @_ZN4llvm8FastISel15fastEmitInst_rrEjPKNS_19TargetRegisterClassEjj(ptr noundef nonnull align 8 dereferenceable(176) %0, i32 noundef 1571, ptr noundef nonnull @_ZN4llvm7AArch6413GPR32RegClassE, i32 noundef %8, i32 noundef %9) #21
  %11 = tail call fastcc noundef i32 @_ZN12_GLOBAL__N_115AArch64FastISel16emitLogicalOp_riEjN4llvm3MVTEjm(ptr noundef nonnull align 8 dereferenceable(192) %0, i32 noundef 185, i16 7, i32 noundef %10, i64 noundef range(i64 0, 4294967296) %.012.ph)
  br label %15

.critedge:                                        ; preds = %4, %6
  %.014 = phi i32 [ 1572, %6 ], [ 1571, %4 ]
  %12 = icmp eq i16 %1, 8
  %13 = select i1 %12, ptr @_ZN4llvm7AArch6413GPR64RegClassE, ptr @_ZN4llvm7AArch6413GPR32RegClassE
  %14 = tail call i32 @_ZN4llvm8FastISel15fastEmitInst_rrEjPKNS_19TargetRegisterClassEjj(ptr noundef nonnull align 8 dereferenceable(176) %0, i32 noundef %.014, ptr noundef nonnull %13, i32 noundef %2, i32 noundef %3) #21
  br label %15

15:                                               ; preds = %7, %.critedge, %4
  %.0 = phi i32 [ 0, %4 ], [ %11, %7 ], [ %14, %.critedge ]
  ret i32 %.0
}